target datalayout = "e-m:e-p270:32:32-p271:32:32-p272:64:64-i64:64-i128:128-f80:128-n8:16:32:64-S128"
target triple = "x86_64-pc-linux-gnu"

%struct.AVFilterContext = type { ptr, ptr, ptr, ptr, ptr, i32, ptr, ptr, i32, ptr, ptr, i32, i32, ptr, ptr, ptr, ptr, i32, ptr, i32, i32 }
%struct.W3FDIFContext = type { ptr, i32, i32, i32, i32, [4 x i32], [4 x i32], i32, i32, i32, ptr, ptr, ptr, ptr, i32, i32, %struct.W3FDIFDSPContext }
%struct.W3FDIFDSPContext = type { ptr, ptr, ptr, ptr, ptr }
%struct.AVFilterLink = type { ptr, ptr, ptr, ptr, i32, i32, i32, i32, %struct.AVRational, i32, i32, i32, %struct.AVChannelLayout, %struct.AVRational, ptr, i32, %struct.AVFilterFormatsConfig, %struct.AVFilterFormatsConfig }
%struct.AVChannelLayout = type { i32, i32, %union.anon.1, ptr }
%union.anon.1 = type { i64 }
%struct.AVRational = type { i32, i32 }
%struct.AVFilterFormatsConfig = type { ptr, ptr, ptr, ptr, ptr }
%struct.AVPixFmtDescriptor = type { ptr, i8, i8, i8, i64, [4 x %struct.AVComponentDescriptor], ptr }
%struct.AVComponentDescriptor = type { i32, i32, i32, i32, i32 }

@.str.3 = private unnamed_addr constant [45 x i8] c"Video of less than 3 lines is not supported\0A\00", align 1

; Function Attrs: nounwind uwtable
define internal i32 @config_input(ptr noundef %0) #2 {
  %2 = alloca i32, align 4
  %3 = alloca ptr, align 8
  %4 = alloca ptr, align 8
  %5 = alloca ptr, align 8
  %6 = alloca ptr, align 8
  %7 = alloca i32, align 4
  %8 = alloca i32, align 4
  %9 = alloca i32, align 4
  %10 = alloca i32, align 4
  %11 = alloca i32, align 4
  store ptr %0, ptr %3, align 8, !tbaa !33
  call void @llvm.lifetime.start.p0(i64 8, ptr %4) #10
  %12 = load ptr, ptr %3, align 8, !tbaa !33
  %13 = getelementptr inbounds nuw %struct.AVFilterLink, ptr %12, i32 0, i32 2
  %14 = load ptr, ptr %13, align 8, !tbaa !36
  store ptr %14, ptr %4, align 8, !tbaa !4
  call void @llvm.lifetime.start.p0(i64 8, ptr %5) #10
  %15 = load ptr, ptr %4, align 8, !tbaa !4
  %16 = getelementptr inbounds nuw %struct.AVFilterContext, ptr %15, i32 0, i32 9
  %17 = load ptr, ptr %16, align 8, !tbaa !9
  store ptr %17, ptr %5, align 8, !tbaa !22
  call void @llvm.lifetime.start.p0(i64 8, ptr %6) #10
  %18 = load ptr, ptr %3, align 8, !tbaa !33
  %19 = getelementptr inbounds nuw %struct.AVFilterLink, ptr %18, i32 0, i32 5
  %20 = load i32, ptr %19, align 4, !tbaa !58
  %21 = call ptr @av_pix_fmt_desc_get(i32 noundef %20)
  store ptr %21, ptr %6, align 8, !tbaa !59
  call void @llvm.lifetime.start.p0(i64 4, ptr %7) #10
  call void @llvm.lifetime.start.p0(i64 4, ptr %8) #10
  call void @llvm.lifetime.start.p0(i64 4, ptr %9) #10
  call void @llvm.lifetime.start.p0(i64 4, ptr %10) #10
  %22 = load ptr, ptr %5, align 8, !tbaa !22
  %23 = getelementptr inbounds nuw %struct.W3FDIFContext, ptr %22, i32 0, i32 5
  %24 = getelementptr inbounds [4 x i32], ptr %23, i64 0, i64 0
  %25 = load ptr, ptr %3, align 8, !tbaa !33
  %26 = getelementptr inbounds nuw %struct.AVFilterLink, ptr %25, i32 0, i32 5
  %27 = load i32, ptr %26, align 4, !tbaa !58
  %28 = load ptr, ptr %3, align 8, !tbaa !33
  %29 = getelementptr inbounds nuw %struct.AVFilterLink, ptr %28, i32 0, i32 6
  %30 = load i32, ptr %29, align 8, !tbaa !61
  %31 = call i32 @av_image_fill_linesizes(ptr noundef %24, i32 noundef %27, i32 noundef %30)
  store i32 %31, ptr %7, align 4, !tbaa !24
  %32 = icmp slt i32 %31, 0
  br i1 %32, label %33, label %35

33:                                               ; preds = %1
  %34 = load i32, ptr %7, align 4, !tbaa !24
  store i32 %34, ptr %2, align 4
  store i32 1, ptr %11, align 4
  br label %196

35:                                               ; preds = %1
  %36 = load ptr, ptr %6, align 8, !tbaa !59
  %37 = getelementptr inbounds nuw %struct.AVPixFmtDescriptor, ptr %36, i32 0, i32 3
  %38 = load i8, ptr %37, align 2, !tbaa !62
  %39 = call i1 @llvm.is.constant.i8(i8 %38)
  br i1 %39, label %51, label %40

40:                                               ; preds = %35
  %41 = load ptr, ptr %3, align 8, !tbaa !33
  %42 = getelementptr inbounds nuw %struct.AVFilterLink, ptr %41, i32 0, i32 7
  %43 = load i32, ptr %42, align 4, !tbaa !64
  %44 = sub nsw i32 0, %43
  %45 = load ptr, ptr %6, align 8, !tbaa !59
  %46 = getelementptr inbounds nuw %struct.AVPixFmtDescriptor, ptr %45, i32 0, i32 3
  %47 = load i8, ptr %46, align 2, !tbaa !62
  %48 = zext i8 %47 to i32
  %49 = ashr i32 %44, %48
  %50 = sub nsw i32 0, %49
  br label %67

51:                                               ; preds = %35
  %52 = load ptr, ptr %3, align 8, !tbaa !33
  %53 = getelementptr inbounds nuw %struct.AVFilterLink, ptr %52, i32 0, i32 7
  %54 = load i32, ptr %53, align 4, !tbaa !64
  %55 = load ptr, ptr %6, align 8, !tbaa !59
  %56 = getelementptr inbounds nuw %struct.AVPixFmtDescriptor, ptr %55, i32 0, i32 3
  %57 = load i8, ptr %56, align 2, !tbaa !62
  %58 = zext i8 %57 to i32
  %59 = shl i32 1, %58
  %60 = add nsw i32 %54, %59
  %61 = sub nsw i32 %60, 1
  %62 = load ptr, ptr %6, align 8, !tbaa !59
  %63 = getelementptr inbounds nuw %struct.AVPixFmtDescriptor, ptr %62, i32 0, i32 3
  %64 = load i8, ptr %63, align 2, !tbaa !62
  %65 = zext i8 %64 to i32
  %66 = ashr i32 %61, %65
  br label %67

67:                                               ; preds = %51, %40
  %68 = phi i32 [ %50, %40 ], [ %66, %51 ]
  %69 = load ptr, ptr %5, align 8, !tbaa !22
  %70 = getelementptr inbounds nuw %struct.W3FDIFContext, ptr %69, i32 0, i32 6
  %71 = getelementptr inbounds [4 x i32], ptr %70, i64 0, i64 2
  store i32 %68, ptr %71, align 8, !tbaa !24
  %72 = load ptr, ptr %5, align 8, !tbaa !22
  %73 = getelementptr inbounds nuw %struct.W3FDIFContext, ptr %72, i32 0, i32 6
  %74 = getelementptr inbounds [4 x i32], ptr %73, i64 0, i64 1
  store i32 %68, ptr %74, align 4, !tbaa !24
  %75 = load ptr, ptr %3, align 8, !tbaa !33
  %76 = getelementptr inbounds nuw %struct.AVFilterLink, ptr %75, i32 0, i32 7
  %77 = load i32, ptr %76, align 4, !tbaa !64
  %78 = load ptr, ptr %5, align 8, !tbaa !22
  %79 = getelementptr inbounds nuw %struct.W3FDIFContext, ptr %78, i32 0, i32 6
  %80 = getelementptr inbounds [4 x i32], ptr %79, i64 0, i64 3
  store i32 %77, ptr %80, align 4, !tbaa !24
  %81 = load ptr, ptr %5, align 8, !tbaa !22
  %82 = getelementptr inbounds nuw %struct.W3FDIFContext, ptr %81, i32 0, i32 6
  %83 = getelementptr inbounds [4 x i32], ptr %82, i64 0, i64 0
  store i32 %77, ptr %83, align 8, !tbaa !24
  %84 = load ptr, ptr %3, align 8, !tbaa !33
  %85 = getelementptr inbounds nuw %struct.AVFilterLink, ptr %84, i32 0, i32 7
  %86 = load i32, ptr %85, align 4, !tbaa !64
  %87 = icmp slt i32 %86, 3
  br i1 %87, label %88, label %90

88:                                               ; preds = %67
  %89 = load ptr, ptr %4, align 8, !tbaa !4
  call void (ptr, i32, ptr, ...) @av_log(ptr noundef %89, i32 noundef 16, ptr noundef @.str.3)
  store i32 -22, ptr %2, align 4
  store i32 1, ptr %11, align 4
  br label %196

90:                                               ; preds = %67
  %91 = load ptr, ptr %3, align 8, !tbaa !33
  %92 = getelementptr inbounds nuw %struct.AVFilterLink, ptr %91, i32 0, i32 5
  %93 = load i32, ptr %92, align 4, !tbaa !58
  %94 = call i32 @av_pix_fmt_count_planes(i32 noundef %93)
  %95 = load ptr, ptr %5, align 8, !tbaa !22
  %96 = getelementptr inbounds nuw %struct.W3FDIFContext, ptr %95, i32 0, i32 9
  store i32 %94, ptr %96, align 8, !tbaa !65
  %97 = load ptr, ptr %4, align 8, !tbaa !4
  %98 = call i32 @ff_filter_get_nb_threads(ptr noundef %97) #11
  store i32 %98, ptr %10, align 4, !tbaa !24
  %99 = load i32, ptr %10, align 4, !tbaa !24
  %100 = sext i32 %99 to i64
  %101 = call noalias ptr @av_calloc(i64 noundef %100, i64 noundef 8)
  %102 = load ptr, ptr %5, align 8, !tbaa !22
  %103 = getelementptr inbounds nuw %struct.W3FDIFContext, ptr %102, i32 0, i32 13
  store ptr %101, ptr %103, align 8, !tbaa !30
  %104 = load ptr, ptr %5, align 8, !tbaa !22
  %105 = getelementptr inbounds nuw %struct.W3FDIFContext, ptr %104, i32 0, i32 13
  %106 = load ptr, ptr %105, align 8, !tbaa !30
  %107 = icmp ne ptr %106, null
  br i1 %107, label %109, label %108

108:                                              ; preds = %90
  store i32 -12, ptr %2, align 4
  store i32 1, ptr %11, align 4
  br label %196

109:                                              ; preds = %90
  %110 = load i32, ptr %10, align 4, !tbaa !24
  %111 = load ptr, ptr %5, align 8, !tbaa !22
  %112 = getelementptr inbounds nuw %struct.W3FDIFContext, ptr %111, i32 0, i32 14
  store i32 %110, ptr %112, align 8, !tbaa !25
  store i32 0, ptr %8, align 4, !tbaa !24
  br label %113

113:                                              ; preds = %145, %109
  %114 = load i32, ptr %8, align 4, !tbaa !24
  %115 = load ptr, ptr %5, align 8, !tbaa !22
  %116 = getelementptr inbounds nuw %struct.W3FDIFContext, ptr %115, i32 0, i32 14
  %117 = load i32, ptr %116, align 8, !tbaa !25
  %118 = icmp slt i32 %114, %117
  br i1 %118, label %119, label %148

119:                                              ; preds = %113
  %120 = load ptr, ptr %5, align 8, !tbaa !22
  %121 = getelementptr inbounds nuw %struct.W3FDIFContext, ptr %120, i32 0, i32 5
  %122 = getelementptr inbounds [4 x i32], ptr %121, i64 0, i64 0
  %123 = load i32, ptr %122, align 8, !tbaa !24
  %124 = add nsw i32 %123, 32
  %125 = sub nsw i32 %124, 1
  %126 = and i32 %125, -32
  %127 = sext i32 %126 to i64
  %128 = call noalias ptr @av_calloc(i64 noundef %127, i64 noundef 4)
  %129 = load ptr, ptr %5, align 8, !tbaa !22
  %130 = getelementptr inbounds nuw %struct.W3FDIFContext, ptr %129, i32 0, i32 13
  %131 = load ptr, ptr %130, align 8, !tbaa !30
  %132 = load i32, ptr %8, align 4, !tbaa !24
  %133 = sext i32 %132 to i64
  %134 = getelementptr inbounds ptr, ptr %131, i64 %133
  store ptr %128, ptr %134, align 8, !tbaa !66
  %135 = load ptr, ptr %5, align 8, !tbaa !22
  %136 = getelementptr inbounds nuw %struct.W3FDIFContext, ptr %135, i32 0, i32 13
  %137 = load ptr, ptr %136, align 8, !tbaa !30
  %138 = load i32, ptr %8, align 4, !tbaa !24
  %139 = sext i32 %138 to i64
  %140 = getelementptr inbounds ptr, ptr %137, i64 %139
  %141 = load ptr, ptr %140, align 8, !tbaa !66
  %142 = icmp ne ptr %141, null
  br i1 %142, label %144, label %143

143:                                              ; preds = %119
  store i32 -12, ptr %2, align 4
  store i32 1, ptr %11, align 4
  br label %196

144:                                              ; preds = %119
  br label %145

145:                                              ; preds = %144
  %146 = load i32, ptr %8, align 4, !tbaa !24
  %147 = add nsw i32 %146, 1
  store i32 %147, ptr %8, align 4, !tbaa !24
  br label %113, !llvm.loop !68

148:                                              ; preds = %113
  %149 = load ptr, ptr %6, align 8, !tbaa !59
  %150 = getelementptr inbounds nuw %struct.AVPixFmtDescriptor, ptr %149, i32 0, i32 5
  %151 = getelementptr inbounds [4 x %struct.AVComponentDescriptor], ptr %150, i64 0, i64 0
  %152 = getelementptr inbounds nuw %struct.AVComponentDescriptor, ptr %151, i32 0, i32 4
  %153 = load i32, ptr %152, align 8, !tbaa !69
  store i32 %153, ptr %9, align 4, !tbaa !24
  %154 = load i32, ptr %9, align 4, !tbaa !24
  %155 = shl i32 1, %154
  %156 = sub nsw i32 %155, 1
  %157 = mul nsw i32 %156, 256
  %158 = mul nsw i32 %157, 128
  %159 = load ptr, ptr %5, align 8, !tbaa !22
  %160 = getelementptr inbounds nuw %struct.W3FDIFContext, ptr %159, i32 0, i32 15
  store i32 %158, ptr %160, align 4, !tbaa !71
  %161 = load i32, ptr %9, align 4, !tbaa !24
  %162 = icmp sle i32 %161, 8
  br i1 %162, label %163, label %179

163:                                              ; preds = %148
  %164 = load ptr, ptr %5, align 8, !tbaa !22
  %165 = getelementptr inbounds nuw %struct.W3FDIFContext, ptr %164, i32 0, i32 16
  %166 = getelementptr inbounds nuw %struct.W3FDIFDSPContext, ptr %165, i32 0, i32 0
  store ptr @filter_simple_low, ptr %166, align 8, !tbaa !72
  %167 = load ptr, ptr %5, align 8, !tbaa !22
  %168 = getelementptr inbounds nuw %struct.W3FDIFContext, ptr %167, i32 0, i32 16
  %169 = getelementptr inbounds nuw %struct.W3FDIFDSPContext, ptr %168, i32 0, i32 1
  store ptr @filter_complex_low, ptr %169, align 8, !tbaa !73
  %170 = load ptr, ptr %5, align 8, !tbaa !22
  %171 = getelementptr inbounds nuw %struct.W3FDIFContext, ptr %170, i32 0, i32 16
  %172 = getelementptr inbounds nuw %struct.W3FDIFDSPContext, ptr %171, i32 0, i32 2
  store ptr @filter_simple_high, ptr %172, align 8, !tbaa !74
  %173 = load ptr, ptr %5, align 8, !tbaa !22
  %174 = getelementptr inbounds nuw %struct.W3FDIFContext, ptr %173, i32 0, i32 16
  %175 = getelementptr inbounds nuw %struct.W3FDIFDSPContext, ptr %174, i32 0, i32 3
  store ptr @filter_complex_high, ptr %175, align 8, !tbaa !75
  %176 = load ptr, ptr %5, align 8, !tbaa !22
  %177 = getelementptr inbounds nuw %struct.W3FDIFContext, ptr %176, i32 0, i32 16
  %178 = getelementptr inbounds nuw %struct.W3FDIFDSPContext, ptr %177, i32 0, i32 4
  store ptr @filter_scale, ptr %178, align 8, !tbaa !76
  br label %195

179:                                              ; preds = %148
  %180 = load ptr, ptr %5, align 8, !tbaa !22
  %181 = getelementptr inbounds nuw %struct.W3FDIFContext, ptr %180, i32 0, i32 16
  %182 = getelementptr inbounds nuw %struct.W3FDIFDSPContext, ptr %181, i32 0, i32 0
  store ptr @filter16_simple_low, ptr %182, align 8, !tbaa !72
  %183 = load ptr, ptr %5, align 8, !tbaa !22
  %184 = getelementptr inbounds nuw %struct.W3FDIFContext, ptr %183, i32 0, i32 16
  %185 = getelementptr inbounds nuw %struct.W3FDIFDSPContext, ptr %184, i32 0, i32 1
  store ptr @filter16_complex_low, ptr %185, align 8, !tbaa !73
  %186 = load ptr, ptr %5, align 8, !tbaa !22
  %187 = getelementptr inbounds nuw %struct.W3FDIFContext, ptr %186, i32 0, i32 16
  %188 = getelementptr inbounds nuw %struct.W3FDIFDSPContext, ptr %187, i32 0, i32 2
  store ptr @filter16_simple_high, ptr %188, align 8, !tbaa !74
  %189 = load ptr, ptr %5, align 8, !tbaa !22
  %190 = getelementptr inbounds nuw %struct.W3FDIFContext, ptr %189, i32 0, i32 16
  %191 = getelementptr inbounds nuw %struct.W3FDIFDSPContext, ptr %190, i32 0, i32 3
  store ptr @filter16_complex_high, ptr %191, align 8, !tbaa !75
  %192 = load ptr, ptr %5, align 8, !tbaa !22
  %193 = getelementptr inbounds nuw %struct.W3FDIFContext, ptr %192, i32 0, i32 16
  %194 = getelementptr inbounds nuw %struct.W3FDIFDSPContext, ptr %193, i32 0, i32 4
  store ptr @filter16_scale, ptr %194, align 8, !tbaa !76
  br label %195

195:                                              ; preds = %179, %163
  store i32 0, ptr %2, align 4
  store i32 1, ptr %11, align 4
  br label %196

196:                                              ; preds = %195, %143, %108, %88, %33
  call void @llvm.lifetime.end.p0(i64 4, ptr %10) #10
  call void @llvm.lifetime.end.p0(i64 4, ptr %9) #10
  call void @llvm.lifetime.end.p0(i64 4, ptr %8) #10
  call void @llvm.lifetime.end.p0(i64 4, ptr %7) #10
  call void @llvm.lifetime.end.p0(i64 8, ptr %6) #10
  call void @llvm.lifetime.end.p0(i64 8, ptr %5) #10
  call void @llvm.lifetime.end.p0(i64 8, ptr %4) #10
  %197 = load i32, ptr %2, align 4
  ret i32 %197
}