; Function Attrs: nounwind uwtable
define internal range(i32 -2147483648, 1) i32 @config_input(ptr noundef readonly captures(none) %0) #2 {
  %2 = getelementptr inbounds nuw i8, ptr %0, i64 16
  %3 = load ptr, ptr %2, align 8, !tbaa !28
  %4 = getelementptr inbounds nuw i8, ptr %3, i64 72
  %5 = load ptr, ptr %4, align 8, !tbaa !4
  %6 = getelementptr inbounds nuw i8, ptr %0, i64 36
  %7 = load i32, ptr %6, align 4, !tbaa !53
  %8 = tail call ptr @av_pix_fmt_desc_get(i32 noundef %7) #11
  %9 = getelementptr inbounds nuw i8, ptr %5, i64 24
  %10 = load i32, ptr %6, align 4, !tbaa !53
  %11 = getelementptr inbounds nuw i8, ptr %0, i64 40
  %12 = load i32, ptr %11, align 8, !tbaa !54
  %13 = tail call i32 @av_image_fill_linesizes(ptr noundef nonnull %9, i32 noundef %10, i32 noundef %12) #11
  %14 = icmp slt i32 %13, 0
  br i1 %14, label %.loopexit, label %15

15:                                               ; preds = %1
  %16 = getelementptr inbounds nuw i8, ptr %0, i64 44
  %17 = load i32, ptr %16, align 4, !tbaa !55
  %18 = sub nsw i32 0, %17
  %19 = getelementptr inbounds nuw i8, ptr %8, i64 10
  %20 = load i8, ptr %19, align 2, !tbaa !56
  %21 = zext nneg i8 %20 to i32
  %22 = ashr i32 %18, %21
  %23 = sub nsw i32 0, %22
  %24 = getelementptr inbounds nuw i8, ptr %5, i64 40
  %25 = getelementptr inbounds nuw i8, ptr %5, i64 48
  store i32 %23, ptr %25, align 8, !tbaa !58
  %26 = getelementptr inbounds nuw i8, ptr %5, i64 44
  store i32 %23, ptr %26, align 4, !tbaa !58
  %27 = getelementptr inbounds nuw i8, ptr %0, i64 44
  %28 = load i32, ptr %27, align 4, !tbaa !55
  %29 = getelementptr inbounds nuw i8, ptr %5, i64 52
  store i32 %28, ptr %29, align 4, !tbaa !58
  store i32 %28, ptr %24, align 8, !tbaa !58
  %30 = load i32, ptr %27, align 4, !tbaa !55
  %31 = icmp slt i32 %30, 3
  br i1 %31, label %32, label %33

32:                                               ; preds = %15
  tail call void (ptr, i32, ptr, ...) @av_log(ptr noundef nonnull %3, i32 noundef 16, ptr noundef nonnull @.str.3) #11
  br label %.loopexit

33:                                               ; preds = %15
  %34 = load i32, ptr %6, align 4, !tbaa !53
  %35 = tail call i32 @av_pix_fmt_count_planes(i32 noundef %34) #11
  %36 = getelementptr inbounds nuw i8, ptr %5, i64 64
  store i32 %35, ptr %36, align 8, !tbaa !59
  %37 = tail call i32 @ff_filter_get_nb_threads(ptr noundef nonnull %3) #12
  %38 = sext i32 %37 to i64
  %39 = tail call noalias ptr @av_calloc(i64 noundef %38, i64 noundef 8) #11
  %40 = getelementptr inbounds nuw i8, ptr %5, i64 96
  store ptr %39, ptr %40, align 8, !tbaa !25
  %.not = icmp eq ptr %39, null
  br i1 %.not, label %.loopexit, label %41

41:                                               ; preds = %33
  %42 = getelementptr inbounds nuw i8, ptr %5, i64 104
  store i32 %37, ptr %42, align 8, !tbaa !20
  %43 = icmp sgt i32 %37, 0
  br i1 %43, label %.lr.ph, label %._crit_edge

44:                                               ; preds = %.lr.ph
  %indvars.iv.next = add nuw nsw i64 %indvars.iv, 1
  %45 = load i32, ptr %42, align 8, !tbaa !20
  %46 = sext i32 %45 to i64
  %47 = icmp slt i64 %indvars.iv.next, %46
  br i1 %47, label %.lr.ph, label %._crit_edge, !llvm.loop !60

.lr.ph:                                           ; preds = %41, %44
  %indvars.iv = phi i64 [ %indvars.iv.next, %44 ], [ 0, %41 ]
  %48 = load i32, ptr %9, align 8, !tbaa !58
  %49 = add nsw i32 %48, 31
  %50 = and i32 %49, -32
  %51 = sext i32 %50 to i64
  %52 = tail call noalias ptr @av_calloc(i64 noundef %51, i64 noundef 4) #11
  %53 = load ptr, ptr %40, align 8, !tbaa !25
  %54 = getelementptr inbounds nuw ptr, ptr %53, i64 %indvars.iv
  store ptr %52, ptr %54, align 8, !tbaa !61
  %.not52 = icmp eq ptr %52, null
  br i1 %.not52, label %.loopexit, label %44

._crit_edge:                                      ; preds = %44, %41
  %55 = getelementptr inbounds nuw i8, ptr %8, i64 40
  %56 = load i32, ptr %55, align 8, !tbaa !63
  %notmask = shl nsw i32 -1, %56
  %57 = xor i32 %notmask, -1
  %58 = shl nsw i32 %57, 15
  %59 = getelementptr inbounds nuw i8, ptr %5, i64 108
  store i32 %58, ptr %59, align 4, !tbaa !65
  %60 = icmp slt i32 %56, 9
  %61 = getelementptr inbounds nuw i8, ptr %5, i64 112
  %62 = getelementptr inbounds nuw i8, ptr %5, i64 120
  %63 = getelementptr inbounds nuw i8, ptr %5, i64 128
  %64 = getelementptr inbounds nuw i8, ptr %5, i64 136
  %65 = getelementptr inbounds nuw i8, ptr %5, i64 144
  br i1 %60, label %66, label %67

66:                                               ; preds = %._crit_edge
  store ptr @filter_simple_low, ptr %61, align 8, !tbaa !66
  store ptr @filter_complex_low, ptr %62, align 8, !tbaa !67
  store ptr @filter_simple_high, ptr %63, align 8, !tbaa !68
  store ptr @filter_complex_high, ptr %64, align 8, !tbaa !69
  store ptr @filter_scale, ptr %65, align 8, !tbaa !70
  br label %.loopexit

67:                                               ; preds = %._crit_edge
  store ptr @filter16_simple_low, ptr %61, align 8, !tbaa !66
  store ptr @filter16_complex_low, ptr %62, align 8, !tbaa !67
  store ptr @filter16_simple_high, ptr %63, align 8, !tbaa !68
  store ptr @filter16_complex_high, ptr %64, align 8, !tbaa !69
  store ptr @filter16_scale, ptr %65, align 8, !tbaa !70
  br label %.loopexit

.loopexit:                                        ; preds = %.lr.ph, %66, %67, %33, %1, %32
  %.0 = phi i32 [ -22, %32 ], [ %13, %1 ], [ -12, %33 ], [ 0, %67 ], [ 0, %66 ], [ -12, %.lr.ph ]
  ret i32 %.0
}